; Function Attrs: mustprogress uwtable
define hidden void @_ZN4cvc58internal6theory9datatypes31CodatatypeBoundVariableTypeRule11computeTypeEPNS0_11NodeManagerENS0_12NodeTemplateILb0EEEbPSo(ptr dead_on_unwind noalias writable writeonly sret(%"class.cvc5::internal::TypeNode") align 8 captures(none) initializes((0, 8)) %0, ptr noundef readnone captures(none) %1, ptr noundef readonly captures(none) %2, i1 noundef zeroext %3, ptr noundef readnone captures(none) %4) local_unnamed_addr #3 align 2 {
  %6 = load ptr, ptr %2, align 8, !tbaa !12
  %7 = tail call noundef nonnull align 8 dereferenceable(24) ptr @_ZNK4cvc58internal4expr9NodeValue8getConstINS0_23CodatatypeBoundVariableEEERKT_v(ptr noundef nonnull align 8 dereferenceable(24) %6)
  %8 = tail call noundef nonnull align 8 dereferenceable(8) ptr @_ZNK4cvc58internal23CodatatypeBoundVariable7getTypeEv(ptr noundef nonnull align 8 dereferenceable(24) %7)
  %9 = load ptr, ptr %8, align 8, !tbaa !18
  store ptr %9, ptr %0, align 8, !tbaa !18
  %10 = load i64, ptr %9, align 8
  %11 = lshr i64 %10, 40
  %12 = trunc nuw nsw i64 %11 to i32
  %13 = and i32 %12, 1048575
  %14 = icmp samesign ult i32 %13, 1048574
  br i1 %14, label %15, label %20, !prof !25

15:                                               ; preds = %5
  %16 = add i64 %10, 1099511627776
  %17 = and i64 %16, 1152920405095219200
  %18 = and i64 %10, -1152920405095219201
  %19 = or disjoint i64 %17, %18
  store i64 %19, ptr %9, align 8
  br label %_ZN4cvc58internal8TypeNodeC2ERKS1_.exit

20:                                               ; preds = %5
  %21 = icmp eq i32 %13, 1048574
  br i1 %21, label %22, label %_ZN4cvc58internal8TypeNodeC2ERKS1_.exit, !prof !14

22:                                               ; preds = %20
  %23 = or i64 %10, 1152920405095219200
  store i64 %23, ptr %9, align 8
  tail call void @_ZN4cvc58internal4expr9NodeValue20markRefCountMaxedOutEv(ptr noundef nonnull align 8 dereferenceable(24) %9)
  br label %_ZN4cvc58internal8TypeNodeC2ERKS1_.exit

_ZN4cvc58internal8TypeNodeC2ERKS1_.exit:          ; preds = %15, %20, %22
  ret void
}